target datalayout = "e-m:e-p270:32:32-p271:32:32-p272:64:64-i64:64-i128:128-f80:128-n8:16:32:64-S128"
target triple = "x86_64-pc-linux-gnu"

%struct.handle_dev_args = type { i32, i32, ptr }
%struct.stepd_step_rec_t = type { ptr, ptr, i32, %union.pthread_cond_t, %union.pthread_mutex_t, %struct.slurm_step_id_msg, i32, i32, i32, i32, i32, i32, ptr, ptr, i32, i32, ptr, i32, i32, i32, i32, i32, ptr, ptr, ptr, ptr, i32, i32, i64, i64, i16, i32, ptr, ptr, ptr, i32, ptr, i32, ptr, i32, ptr, i16, i32, i32, i32, ptr, i32, ptr, ptr, ptr, ptr, i32, i32, ptr, ptr, i8, i8, i8, i64, i32, ptr, ptr, ptr, ptr, ptr, ptr, ptr, ptr, ptr, ptr, i32, i32, ptr, i8, %union.pthread_cond_t, %union.pthread_mutex_t, i64, ptr, i32, i32, i32, ptr, i64, ptr, ptr, i8, ptr, i16, ptr, ptr, ptr, ptr, ptr, ptr, i64, ptr, i64, ptr, i16, i8, i16, i32, ptr, i16, ptr, ptr, i16, ptr, ptr, ptr, i8 }
%struct.slurm_step_id_msg = type { i64, i32, i32, i32 }
%union.pthread_cond_t = type { %struct.__pthread_cond_s }
%struct.__pthread_cond_s = type { %union.__atomic_wide_counter, %union.__atomic_wide_counter, [2 x i32], [2 x i32], i32, i32, [2 x i32] }
%union.__atomic_wide_counter = type { i64 }
%union.pthread_mutex_t = type { %struct.__pthread_mutex_s }
%struct.__pthread_mutex_s = type { i32, i32, i32, i32, i32, i16, i16, %struct.__pthread_internal_list }
%struct.__pthread_internal_list = type { ptr, ptr }

; Function Attrs: nounwind uwtable
define dso_local i32 @task_cgroup_devices_constrain(ptr noundef %0, i32 noundef %1, i32 noundef %2) #0 {
  %4 = alloca i32, align 4
  %5 = alloca ptr, align 8
  %6 = alloca i32, align 4
  %7 = alloca i32, align 4
  %8 = alloca ptr, align 8
  %9 = alloca %struct.handle_dev_args, align 8
  %10 = alloca i32, align 4
  %11 = alloca i32, align 4
  store ptr %0, ptr %5, align 8
  store i32 %1, ptr %6, align 4
  store i32 %2, ptr %7, align 4
  call void @llvm.lifetime.start.p0(i64 8, ptr %8) #5
  store ptr null, ptr %8, align 8
  call void @llvm.lifetime.start.p0(i64 16, ptr %9) #5
  %12 = load ptr, ptr %5, align 8
  %13 = getelementptr inbounds nuw %struct.stepd_step_rec_t, ptr %12, i32 0, i32 5
  %14 = getelementptr inbounds nuw %struct.slurm_step_id_msg, ptr %13, i32 0, i32 3
  %15 = load i32, ptr %14, align 8
  %16 = icmp eq i32 %15, -5
  br i1 %16, label %36, label %17

17:                                               ; preds = %3
  %18 = load ptr, ptr %5, align 8
  %19 = getelementptr inbounds nuw %struct.stepd_step_rec_t, ptr %18, i32 0, i32 5
  %20 = getelementptr inbounds nuw %struct.slurm_step_id_msg, ptr %19, i32 0, i32 3
  %21 = load i32, ptr %20, align 8
  %22 = icmp eq i32 %21, -4
  br i1 %22, label %36, label %23

23:                                               ; preds = %17
  %24 = load ptr, ptr %5, align 8
  %25 = getelementptr inbounds nuw %struct.stepd_step_rec_t, ptr %24, i32 0, i32 5
  %26 = getelementptr inbounds nuw %struct.slurm_step_id_msg, ptr %25, i32 0, i32 3
  %27 = load i32, ptr %26, align 8
  %28 = icmp eq i32 %27, -6
  br i1 %28, label %36, label %29

29:                                               ; preds = %23
  %30 = load ptr, ptr %5, align 8
  %31 = getelementptr inbounds nuw %struct.stepd_step_rec_t, ptr %30, i32 0, i32 80
  %32 = load i32, ptr %31, align 8
  %33 = zext i32 %32 to i64
  %34 = and i64 %33, 32
  %35 = icmp ne i64 %34, 0
  br i1 %35, label %36, label %37

36:                                               ; preds = %29, %23, %17, %3
  store i32 0, ptr %4, align 4
  store i32 1, ptr %10, align 4
  br label %78

37:                                               ; preds = %29
  %38 = load ptr, ptr %5, align 8
  %39 = getelementptr inbounds nuw %struct.stepd_step_rec_t, ptr %38, i32 0, i32 91
  %40 = load ptr, ptr %39, align 8
  %41 = load ptr, ptr %5, align 8
  %42 = getelementptr inbounds nuw %struct.stepd_step_rec_t, ptr %41, i32 0, i32 41
  %43 = load i16, ptr %42, align 8
  %44 = load ptr, ptr %5, align 8
  %45 = getelementptr inbounds nuw %struct.stepd_step_rec_t, ptr %44, i32 0, i32 92
  %46 = load ptr, ptr %45, align 8
  %47 = load i32, ptr %6, align 4
  %48 = load ptr, ptr %5, align 8
  %49 = call ptr @gres_g_get_devices(ptr noundef %40, i1 noundef zeroext false, i16 noundef zeroext %43, ptr noundef %46, i32 noundef %47, ptr noundef %48)
  store ptr %49, ptr %8, align 8
  %50 = load ptr, ptr %8, align 8
  %51 = icmp ne ptr %50, null
  br i1 %51, label %52, label %77

52:                                               ; preds = %37
  call void @llvm.lifetime.start.p0(i64 4, ptr %11) #5
  %53 = getelementptr inbounds nuw %struct.handle_dev_args, ptr %9, i32 0, i32 0
  store i32 7, ptr %53, align 8
  %54 = load ptr, ptr %5, align 8
  %55 = getelementptr inbounds nuw %struct.handle_dev_args, ptr %9, i32 0, i32 2
  store ptr %54, ptr %55, align 8
  %56 = load i32, ptr %7, align 4
  %57 = getelementptr inbounds nuw %struct.handle_dev_args, ptr %9, i32 0, i32 1
  store i32 %56, ptr %57, align 4
  %58 = load ptr, ptr %8, align 8
  %59 = call i32 @list_for_each(ptr noundef %58, ptr noundef @_handle_device_access, ptr noundef %9)
  store i32 %59, ptr %11, align 4
  br label %60

60:                                               ; preds = %52
  %61 = load ptr, ptr %8, align 8
  %62 = icmp ne ptr %61, null
  br i1 %62, label %63, label %65

63:                                               ; preds = %60
  %64 = load ptr, ptr %8, align 8
  call void @list_destroy(ptr noundef %64)
  br label %65

65:                                               ; preds = %63, %60
  store ptr null, ptr %8, align 8
  br label %66

66:                                               ; preds = %65
  br label %67

67:                                               ; preds = %66
  %68 = load i32, ptr %11, align 4
  %69 = icmp slt i32 %68, 0
  br i1 %69, label %70, label %71

70:                                               ; preds = %67
  store i32 -1, ptr %4, align 4
  store i32 1, ptr %10, align 4
  br label %74

71:                                               ; preds = %67
  %72 = load i32, ptr %7, align 4
  %73 = call i32 @cgroup_g_constrain_apply(i32 noundef 3, i32 noundef 7, i32 noundef %72)
  store i32 0, ptr %10, align 4
  br label %74

74:                                               ; preds = %71, %70
  call void @llvm.lifetime.end.p0(i64 4, ptr %11) #5
  %75 = load i32, ptr %10, align 4
  switch i32 %75, label %78 [
    i32 0, label %76
  ]

76:                                               ; preds = %74
  br label %77

77:                                               ; preds = %76, %37
  store i32 0, ptr %4, align 4
  store i32 1, ptr %10, align 4
  br label %78

78:                                               ; preds = %77, %74, %36
  call void @llvm.lifetime.end.p0(i64 16, ptr %9) #5
  call void @llvm.lifetime.end.p0(i64 8, ptr %8) #5
  %79 = load i32, ptr %4, align 4
  ret i32 %79
}