; Function Attrs: nounwind uwtable
define dso_local range(i32 -1, 1) i32 @task_cgroup_devices_constrain(ptr noundef %0, i32 noundef %1, i32 noundef %2) local_unnamed_addr #0 {
  %4 = alloca %struct.handle_dev_args, align 8
  call void @llvm.lifetime.start.p0(i64 16, ptr nonnull %4) #5
  %5 = getelementptr inbounds nuw i8, ptr %0, i64 128
  %6 = load i32, ptr %5, align 8
  %.off = add i32 %6, 6
  %switch = icmp ult i32 %.off, 3
  br i1 %switch, label %.critedge, label %7

7:                                                ; preds = %3
  %8 = getelementptr inbounds nuw i8, ptr %0, i64 680
  %9 = load i32, ptr %8, align 8
  %10 = and i32 %9, 32
  %.not = icmp eq i32 %10, 0
  br i1 %.not, label %11, label %.critedge

11:                                               ; preds = %7
  %12 = getelementptr inbounds nuw i8, ptr %0, i64 768
  %13 = load ptr, ptr %12, align 8
  %14 = getelementptr inbounds nuw i8, ptr %0, i64 352
  %15 = load i16, ptr %14, align 8
  %16 = getelementptr inbounds nuw i8, ptr %0, i64 776
  %17 = load ptr, ptr %16, align 8
  %18 = tail call ptr @gres_g_get_devices(ptr noundef %13, i1 noundef zeroext false, i16 noundef zeroext %15, ptr noundef %17, i32 noundef %1, ptr noundef nonnull %0) #5
  %.not21 = icmp eq ptr %18, null
  br i1 %.not21, label %.critedge, label %19

19:                                               ; preds = %11
  store i32 7, ptr %4, align 8
  %20 = getelementptr inbounds nuw i8, ptr %4, i64 8
  store ptr %0, ptr %20, align 8
  %21 = getelementptr inbounds nuw i8, ptr %4, i64 4
  store i32 %2, ptr %21, align 4
  %22 = call i32 @list_for_each(ptr noundef nonnull %18, ptr noundef nonnull @_handle_device_access, ptr noundef nonnull %4) #5
  call void @list_destroy(ptr noundef nonnull %18) #5
  %23 = icmp sgt i32 %22, -1
  br i1 %23, label %24, label %.critedge

24:                                               ; preds = %19
  %25 = call i32 @cgroup_g_constrain_apply(i32 noundef 3, i32 noundef 7, i32 noundef %2) #5
  br label %.critedge

.critedge:                                        ; preds = %11, %24, %3, %19, %7
  %.0 = phi i32 [ 0, %3 ], [ 0, %7 ], [ -1, %19 ], [ 0, %24 ], [ 0, %11 ]
  call void @llvm.lifetime.end.p0(i64 16, ptr nonnull %4) #5
  ret i32 %.0
}